(dp0
S'gi|60115395|ref|YP_209233.1| spike glycoprotein (S) [Murine hepatitis virus strain JHM]'
p1
(dp2
g1
I0
sS'gi|30795145|gb|AAP41037.1| spike glycoprotein [SARS coronavirus Tor2]'
p3
F1.8574730553631056
sS'gi|540805|pir||S41453 spike protein - canine coronavirus'
p4
F2.570168873277706
sS'gi|19387577|ref|NP_598310.1| spike protein [Porcine epidemic diarrhea virus]'
p5
F2.938126853394583
sS'gi|975637|dbj|BAA06805.1| peplomer protein [Feline infectious peritonitis virus]'
p6
F2.458346354639377
sS'gi|9629814|ref|NP_045300.1| E2 glycoprotein precursor [Murine hepatitis virus strain A59]'
p7
F0.1220602152519938
sS'gi|15077811|gb|AAK83356.1| spike structural protein [bovine coronavirus]'
p8
F0.47945065865710734
sS'gi|9626538|ref|NP_040831.1| spike protein [Infectious bronchitis virus]'
p9
F2.2457958605342485
sS'gi|23295760|gb|AAL80031.1| spike glycoprotein [porcine hemagglutinating encephalomyelitis virus]'
p10
F0.4802761348719603
sS'gi|38018026|ref|NP_937950.1| S protein [Human coronavirus OC43]'
p11
F0.5017533299408615
sS'gi|18033975|gb|AAL57308.1| spike structural protein [bovine coronavirus]'
p12
F0.4781011306276727
sS'gi|55275769|gb|AAV49723.1| spike glycoprotein [SARS coronavirus PC4-241]'
p13
F1.830634994995477
ssg3
(dp14
g1
F1.863160416831824
sg3
I0
sg4
F2.5280536306330856
sg5
F2.780090588541873
sg6
F2.152799718531936
sg7
F1.7565695935271677
sg8
F1.8218608622268566
sg9
F2.4373093191030475
sg10
F1.891821816833318
sg11
F1.9230081231594538
sg12
F1.829839660880648
sg13
F0.012858605885878522
ssg4
(dp15
g1
F2.6065175549677857
sg3
F2.5735524177894162
sg4
I0
sg5
F0.9931096074921787
sg6
F0.9534818490658912
sg7
F2.5355458990337056
sg8
F2.387854862128047
sg9
F2.022821606221758
sg10
F2.571609411521347
sg11
F2.2833918282925683
sg12
F2.4446871717434275
sg13
F2.714097854418563
ssg5
(dp16
g1
F2.938126853394583
sg3
F2.780090588541873
sg4
F0.9917004136182119
sg5
I0
sg6
F1.0891290842451495
sg7
F2.639235312988903
sg8
F2.5594066360118584
sg9
F1.7200894570730791
sg10
F2.888912220047345
sg11
F3.2371318330424677
sg12
F2.6066320609700324
sg13
F2.5718707052181005
ssg6
(dp17
g1
F2.458346354639377
sg3
F2.152799718531936
sg4
F0.9557842299991073
sg5
F1.0891290842451495
sg6
I0
sg7
F2.5696613584780823
sg8
F2.8860290895618697
sg9
F2.0150796019911943
sg10
F2.644604519304637
sg11
F2.41891447409278
sg12
F2.7826516676870696
sg13
F2.172675462583972
ssg7
(dp18
g1
F0.1220602152519938
sg3
F1.7515311868627772
sg4
F2.5355458990337056
sg5
F2.639235312988903
sg6
F2.5696613584780823
sg7
I0
sg8
F0.49277779694533863
sg9
F2.372295784321354
sg10
F0.4964461164736106
sg11
F0.5072671416036127
sg12
F0.4941699087139336
sg13
F1.7060697534757274
ssg8
(dp19
g1
F0.47945065865710734
sg3
F1.8218608622268566
sg4
F2.407814336137481
sg5
F2.5594066360118584
sg6
F2.8362458906736765
sg7
F0.49277779694533863
sg8
I0
sg9
F2.488841215944077
sg10
F0.20097293790103582
sg11
F0.09045698458533287
sg12
F0.005153394508758376
sg13
F1.833584144022916
ssg9
(dp20
g1
F2.2457958605342485
sg3
F2.4373093191030475
sg4
F2.022821606221758
sg5
F1.7200894570730791
sg6
F1.9745116473444058
sg7
F2.35958735293933
sg8
F2.488841215944077
sg9
I0
sg10
F2.2311968594431697
sg11
F2.4338948498891804
sg12
F2.579949875961802
sg13
F2.601465295585488
ssg10
(dp21
g1
F0.4802761348719603
sg3
F1.8912109660964478
sg4
F2.571609411521347
sg5
F2.9117423554546242
sg6
F2.644604519304637
sg7
F0.4964461164736106
sg8
F0.20097293790103582
sg9
F2.2311968594431697
sg10
I0
sg11
F0.22253898475469217
sg12
F0.20192987582990066
sg13
F1.854697844055963
ssg11
(dp22
g1
F0.4994844249656205
sg3
F1.9195044334280773
sg4
F2.2833918282925683
sg5
F2.759662769119062
sg6
F2.4067460740190505
sg7
F0.5072671416036127
sg8
F0.09045698458533287
sg9
F2.4338948498891804
sg10
F0.22253898475469217
sg11
I0
sg12
F0.09045698458533287
sg13
F1.864207970467346
ssg12
(dp23
g1
F0.4781011306276727
sg3
F1.829839660880648
sg4
F2.4661741999643323
sg5
F2.5758240332625992
sg6
F2.7391805778788747
sg7
F0.4941699087139336
sg8
F0.005153394508758376
sg9
F2.579949875961802
sg10
F0.20192987582990066
sg11
F0.09045698458533287
sg12
I0
sg13
F1.833584144022916
ssg13
(dp24
g1
F1.8227193542364595
sg3
F0.012858605885878522
sg4
F2.714097854418563
sg5
F2.5053653548065498
sg6
F2.172675462583972
sg7
F1.69912525941613
sg8
F1.833584144022916
sg9
F2.631889514794688
sg10
F1.854697844055963
sg11
F1.8673889316711416
sg12
F1.833584144022916
sg13
I0
ss.
